target datalayout = "e-m:e-p270:32:32-p271:32:32-p272:64:64-i64:64-i128:128-f80:128-n8:16:32:64-S128"
target triple = "x86_64-pc-linux-gnu"

%struct.oidset = type { %struct.kh_oid_set }
%struct.kh_oid_set = type { i32, i32, i32, i32, ptr, ptr, ptr }
%struct.rev_info = type { ptr, %struct.object_array, ptr, %struct.object_array, %struct.rev_cmdline_info, %struct.list_objects_filter_options, %struct.ref_exclusions, ptr, ptr, ptr, %struct.pathspec, i32, i32, i32, i32, i64, i32, i32, %struct.date_mode, i32, i32, i32, i32, ptr, i32, i32, ptr, ptr, i32, ptr, ptr, %struct.ident_split, ptr, i32, ptr, ptr, ptr, i32, i32, i32, ptr, %struct.grep_opt, ptr, i32, i32, i64, i64, i64, i32, i32, ptr, ptr, ptr, %struct.diff_options, %struct.diff_options, ptr, %struct.decoration, %struct.decoration, %struct.decoration, %struct.display_notes_opt, ptr, ptr, ptr, ptr, ptr, i32, ptr, i32, i32, i32, %struct.decoration, ptr, ptr, ptr, ptr, ptr, ptr, ptr, i32, ptr, i32, ptr, %struct.oidset }
%struct.object_array = type { i32, i32, ptr }
%struct.rev_cmdline_info = type { i32, i32, ptr }
%struct.list_objects_filter_options = type { %struct.strbuf, i32, i8, ptr, i64, i64, i32, i64, i64, ptr }
%struct.strbuf = type { i64, i64, ptr }
%struct.ref_exclusions = type { %struct.string_list, %struct.strvec, i8 }
%struct.string_list = type { ptr, i64, i64, i8, ptr }
%struct.strvec = type { ptr, i64, i64 }
%struct.pathspec = type { i32, i8, i32, i32, ptr }
%struct.date_mode = type { i32, i32, ptr }
%struct.ident_split = type { ptr, ptr, ptr, ptr, ptr, ptr, ptr, ptr }
%struct.grep_opt = type { ptr, ptr, ptr, ptr, ptr, ptr, i32, i32, i32, i32, i32, i32, i32, i32, i32, i32, i32, i32, i32, i32, i32, i32, i32, i32, i32, i32, i32, i32, i32, i32, i32, i32, [9 x [75 x i8]], i32, i32, i32, i32, i32, i32, i32, ptr, ptr, ptr }
%struct.diff_options = type { ptr, ptr, i32, i32, ptr, i32, ptr, i64, i64, ptr, ptr, ptr, ptr, %struct.diff_flags, i32, i32, i32, i32, i32, i32, i32, i32, i32, i32, i32, i32, i32, i32, i32, i32, i32, i32, i32, i32, i32, i32, ptr, i32, ptr, i32, i32, ptr, i64, i64, i32, i32, i32, i32, ptr, i32, i32, ptr, i32, i32, ptr, ptr, i32, [3 x i8], %struct.pathspec, ptr, ptr, ptr, ptr, ptr, ptr, ptr, ptr, i32, ptr, i32, i32, ptr, ptr, i32 }
%struct.diff_flags = type { i32, i32, i32, i32, i32, i32, i32, i32, i32, i32, i32, i32, i32, i32, i32, i32, i32, i32, i32, i32, i32, i32, i32, i32, i32, i32, i32, i32, i32, i32, i32, i32, i32, i32, i32 }
%struct.display_notes_opt = type { i32, %struct.string_list }
%struct.decoration = type { ptr, i32, i32, ptr }
%struct.object = type { i32, %struct.object_id }
%struct.object_id = type { [32 x i8], i32 }
%struct.traversal_context = type { ptr, ptr, ptr, ptr, ptr, i32 }
%struct.object_array_entry = type { ptr, ptr, ptr, i32 }
%struct.tag = type { %struct.object, ptr, ptr, i64 }

@.str.1 = private unnamed_addr constant [1 x i8] zeroinitializer, align 1
@.str.2 = private unnamed_addr constant [31 x i8] c"unknown pending object %s (%s)\00", align 1

; Function Attrs: nounwind uwtable
define internal void @show_object(ptr noundef %0, ptr noundef %1, ptr noundef %2) #0 {
  %4 = alloca ptr, align 8
  %5 = alloca ptr, align 8
  %6 = alloca ptr, align 8
  store ptr %0, ptr %4, align 8, !tbaa !99
  store ptr %1, ptr %5, align 8, !tbaa !81
  store ptr %2, ptr %6, align 8, !tbaa !102
  %7 = load ptr, ptr %4, align 8, !tbaa !99
  %8 = getelementptr inbounds nuw %struct.traversal_context, ptr %7, i32 0, i32 1
  %9 = load ptr, ptr %8, align 8, !tbaa !93
  %10 = icmp ne ptr %9, null
  br i1 %10, label %12, label %11

11:                                               ; preds = %3
  br label %42

12:                                               ; preds = %3
  %13 = load ptr, ptr %4, align 8, !tbaa !99
  %14 = getelementptr inbounds nuw %struct.traversal_context, ptr %13, i32 0, i32 0
  %15 = load ptr, ptr %14, align 8, !tbaa !90
  %16 = getelementptr inbounds nuw %struct.rev_info, ptr %15, i32 0, i32 15
  %17 = load i64, ptr %16, align 8
  %18 = lshr i64 %17, 20
  %19 = and i64 %18, 1
  %20 = trunc i64 %19 to i32
  %21 = icmp ne i32 %20, 0
  br i1 %21, label %22, label %33

22:                                               ; preds = %12
  %23 = load ptr, ptr %4, align 8, !tbaa !99
  %24 = getelementptr inbounds nuw %struct.traversal_context, ptr %23, i32 0, i32 0
  %25 = load ptr, ptr %24, align 8, !tbaa !90
  %26 = getelementptr inbounds nuw %struct.rev_info, ptr %25, i32 0, i32 2
  %27 = load ptr, ptr %26, align 8, !tbaa !73
  %28 = load ptr, ptr %5, align 8, !tbaa !81
  %29 = getelementptr inbounds nuw %struct.object, ptr %28, i32 0, i32 1
  %30 = call i32 @has_object_pack(ptr noundef %27, ptr noundef %29)
  %31 = icmp ne i32 %30, 0
  br i1 %31, label %32, label %33

32:                                               ; preds = %22
  br label %42

33:                                               ; preds = %22, %12
  %34 = load ptr, ptr %4, align 8, !tbaa !99
  %35 = getelementptr inbounds nuw %struct.traversal_context, ptr %34, i32 0, i32 1
  %36 = load ptr, ptr %35, align 8, !tbaa !93
  %37 = load ptr, ptr %5, align 8, !tbaa !81
  %38 = load ptr, ptr %6, align 8, !tbaa !102
  %39 = load ptr, ptr %4, align 8, !tbaa !99
  %40 = getelementptr inbounds nuw %struct.traversal_context, ptr %39, i32 0, i32 3
  %41 = load ptr, ptr %40, align 8, !tbaa !95
  call void %36(ptr noundef %37, ptr noundef %38, ptr noundef %41)
  br label %42

42:                                               ; preds = %33, %32, %11
  ret void
}

; Function Attrs: nounwind uwtable
define internal void @process_tag(ptr noundef %0, ptr noundef %1, ptr noundef %2) #0 {
  %4 = alloca ptr, align 8
  %5 = alloca ptr, align 8
  %6 = alloca ptr, align 8
  %7 = alloca i32, align 4
  store ptr %0, ptr %4, align 8, !tbaa !99
  store ptr %1, ptr %5, align 8, !tbaa !114
  store ptr %2, ptr %6, align 8, !tbaa !102
  call void @llvm.lifetime.start.p0(i64 4, ptr %7) #8
  %8 = load ptr, ptr %4, align 8, !tbaa !99
  %9 = getelementptr inbounds nuw %struct.traversal_context, ptr %8, i32 0, i32 0
  %10 = load ptr, ptr %9, align 8, !tbaa !90
  %11 = getelementptr inbounds nuw %struct.rev_info, ptr %10, i32 0, i32 2
  %12 = load ptr, ptr %11, align 8, !tbaa !73
  %13 = load ptr, ptr %5, align 8, !tbaa !114
  %14 = getelementptr inbounds nuw %struct.tag, ptr %13, i32 0, i32 0
  %15 = load ptr, ptr %4, align 8, !tbaa !99
  %16 = getelementptr inbounds nuw %struct.traversal_context, ptr %15, i32 0, i32 4
  %17 = load ptr, ptr %16, align 8, !tbaa !96
  %18 = call i32 @list_objects_filter__filter_object(ptr noundef %12, i32 noundef 1, ptr noundef %14, ptr noundef null, ptr noundef null, ptr noundef %17)
  store i32 %18, ptr %7, align 4, !tbaa !10
  %19 = load i32, ptr %7, align 4, !tbaa !10
  %20 = and i32 %19, 1
  %21 = icmp ne i32 %20, 0
  br i1 %21, label %22, label %33

22:                                               ; preds = %3
  %23 = load ptr, ptr %5, align 8, !tbaa !114
  %24 = getelementptr inbounds nuw %struct.tag, ptr %23, i32 0, i32 0
  %25 = load i32, ptr %24, align 8
  %26 = lshr i32 %25, 4
  %27 = or i32 %26, 1
  %28 = load i32, ptr %24, align 8
  %29 = and i32 %27, 268435455
  %30 = shl i32 %29, 4
  %31 = and i32 %28, 15
  %32 = or i32 %31, %30
  store i32 %32, ptr %24, align 8
  br label %33

33:                                               ; preds = %22, %3
  %34 = load i32, ptr %7, align 4, !tbaa !10
  %35 = and i32 %34, 2
  %36 = icmp ne i32 %35, 0
  br i1 %36, label %37, label %42

37:                                               ; preds = %33
  %38 = load ptr, ptr %4, align 8, !tbaa !99
  %39 = load ptr, ptr %5, align 8, !tbaa !114
  %40 = getelementptr inbounds nuw %struct.tag, ptr %39, i32 0, i32 0
  %41 = load ptr, ptr %6, align 8, !tbaa !102
  call void @show_object(ptr noundef %38, ptr noundef %40, ptr noundef %41)
  br label %42

42:                                               ; preds = %37, %33
  call void @llvm.lifetime.end.p0(i64 4, ptr %7) #8
  ret void
}

; Function Attrs: nounwind uwtable
define internal void @traverse_non_commits(ptr noundef %0, ptr noundef %1) #0 {
  %3 = alloca ptr, align 8
  %4 = alloca ptr, align 8
  %5 = alloca i64, align 8
  %6 = alloca i32, align 4
  %7 = alloca ptr, align 8
  %8 = alloca ptr, align 8
  %9 = alloca ptr, align 8
  %10 = alloca ptr, align 8
  store ptr %0, ptr %3, align 8, !tbaa !99
  store ptr %1, ptr %4, align 8, !tbaa !104
  call void @llvm.lifetime.start.p0(i64 8, ptr %5) #8
  store i64 0, ptr %5, align 8, !tbaa !75
  br label %11

11:                                               ; preds = %90, %2
  %12 = load i64, ptr %5, align 8, !tbaa !75
  %13 = load ptr, ptr %3, align 8, !tbaa !99
  %14 = getelementptr inbounds nuw %struct.traversal_context, ptr %13, i32 0, i32 0
  %15 = load ptr, ptr %14, align 8, !tbaa !90
  %16 = getelementptr inbounds nuw %struct.rev_info, ptr %15, i32 0, i32 1
  %17 = getelementptr inbounds nuw %struct.object_array, ptr %16, i32 0, i32 0
  %18 = load i32, ptr %17, align 8, !tbaa !106
  %19 = zext i32 %18 to i64
  %20 = icmp ult i64 %12, %19
  br i1 %20, label %22, label %21

21:                                               ; preds = %11
  store i32 2, ptr %6, align 4
  call void @llvm.lifetime.end.p0(i64 8, ptr %5) #8
  br label %93

22:                                               ; preds = %11
  call void @llvm.lifetime.start.p0(i64 8, ptr %7) #8
  %23 = load ptr, ptr %3, align 8, !tbaa !99
  %24 = getelementptr inbounds nuw %struct.traversal_context, ptr %23, i32 0, i32 0
  %25 = load ptr, ptr %24, align 8, !tbaa !90
  %26 = getelementptr inbounds nuw %struct.rev_info, ptr %25, i32 0, i32 1
  %27 = getelementptr inbounds nuw %struct.object_array, ptr %26, i32 0, i32 2
  %28 = load ptr, ptr %27, align 8, !tbaa !107
  %29 = load i64, ptr %5, align 8, !tbaa !75
  %30 = getelementptr inbounds nuw %struct.object_array_entry, ptr %28, i64 %29
  store ptr %30, ptr %7, align 8, !tbaa !108
  call void @llvm.lifetime.start.p0(i64 8, ptr %8) #8
  %31 = load ptr, ptr %7, align 8, !tbaa !108
  %32 = getelementptr inbounds nuw %struct.object_array_entry, ptr %31, i32 0, i32 0
  %33 = load ptr, ptr %32, align 8, !tbaa !109
  store ptr %33, ptr %8, align 8, !tbaa !81
  call void @llvm.lifetime.start.p0(i64 8, ptr %9) #8
  %34 = load ptr, ptr %7, align 8, !tbaa !108
  %35 = getelementptr inbounds nuw %struct.object_array_entry, ptr %34, i32 0, i32 1
  %36 = load ptr, ptr %35, align 8, !tbaa !111
  store ptr %36, ptr %9, align 8, !tbaa !102
  call void @llvm.lifetime.start.p0(i64 8, ptr %10) #8
  %37 = load ptr, ptr %7, align 8, !tbaa !108
  %38 = getelementptr inbounds nuw %struct.object_array_entry, ptr %37, i32 0, i32 2
  %39 = load ptr, ptr %38, align 8, !tbaa !112
  store ptr %39, ptr %10, align 8, !tbaa !102
  %40 = load ptr, ptr %8, align 8, !tbaa !81
  %41 = load i32, ptr %40, align 4
  %42 = lshr i32 %41, 4
  %43 = and i32 %42, 3
  %44 = icmp ne i32 %43, 0
  br i1 %44, label %45, label %46

45:                                               ; preds = %22
  store i32 4, ptr %6, align 4
  br label %89

46:                                               ; preds = %22
  %47 = load ptr, ptr %8, align 8, !tbaa !81
  %48 = load i32, ptr %47, align 4
  %49 = lshr i32 %48, 1
  %50 = and i32 %49, 7
  %51 = icmp eq i32 %50, 4
  br i1 %51, label %52, label %56

52:                                               ; preds = %46
  %53 = load ptr, ptr %3, align 8, !tbaa !99
  %54 = load ptr, ptr %8, align 8, !tbaa !81
  %55 = load ptr, ptr %9, align 8, !tbaa !102
  call void @process_tag(ptr noundef %53, ptr noundef %54, ptr noundef %55)
  store i32 4, ptr %6, align 4
  br label %89

56:                                               ; preds = %46
  %57 = load ptr, ptr %10, align 8, !tbaa !102
  %58 = icmp ne ptr %57, null
  br i1 %58, label %60, label %59

59:                                               ; preds = %56
  store ptr @.str.1, ptr %10, align 8, !tbaa !102
  br label %60

60:                                               ; preds = %59, %56
  %61 = load ptr, ptr %8, align 8, !tbaa !81
  %62 = load i32, ptr %61, align 4
  %63 = lshr i32 %62, 1
  %64 = and i32 %63, 7
  %65 = icmp eq i32 %64, 2
  br i1 %65, label %66, label %73

66:                                               ; preds = %60
  %67 = load ptr, ptr %3, align 8, !tbaa !99
  %68 = getelementptr inbounds nuw %struct.traversal_context, ptr %67, i32 0, i32 5
  store i32 0, ptr %68, align 8, !tbaa !97
  %69 = load ptr, ptr %3, align 8, !tbaa !99
  %70 = load ptr, ptr %8, align 8, !tbaa !81
  %71 = load ptr, ptr %4, align 8, !tbaa !104
  %72 = load ptr, ptr %10, align 8, !tbaa !102
  call void @process_tree(ptr noundef %69, ptr noundef %70, ptr noundef %71, ptr noundef %72)
  store i32 4, ptr %6, align 4
  br label %89

73:                                               ; preds = %60
  %74 = load ptr, ptr %8, align 8, !tbaa !81
  %75 = load i32, ptr %74, align 4
  %76 = lshr i32 %75, 1
  %77 = and i32 %76, 7
  %78 = icmp eq i32 %77, 3
  br i1 %78, label %79, label %84

79:                                               ; preds = %73
  %80 = load ptr, ptr %3, align 8, !tbaa !99
  %81 = load ptr, ptr %8, align 8, !tbaa !81
  %82 = load ptr, ptr %4, align 8, !tbaa !104
  %83 = load ptr, ptr %10, align 8, !tbaa !102
  call void @process_blob(ptr noundef %80, ptr noundef %81, ptr noundef %82, ptr noundef %83)
  store i32 4, ptr %6, align 4
  br label %89

84:                                               ; preds = %73
  %85 = load ptr, ptr %8, align 8, !tbaa !81
  %86 = getelementptr inbounds nuw %struct.object, ptr %85, i32 0, i32 1
  %87 = call ptr @oid_to_hex(ptr noundef %86)
  %88 = load ptr, ptr %9, align 8, !tbaa !102
  call void (ptr, ...) @die(ptr noundef @.str.2, ptr noundef %87, ptr noundef %88) #9
  unreachable

89:                                               ; preds = %79, %66, %52, %45
  call void @llvm.lifetime.end.p0(i64 8, ptr %10) #8
  call void @llvm.lifetime.end.p0(i64 8, ptr %9) #8
  call void @llvm.lifetime.end.p0(i64 8, ptr %8) #8
  call void @llvm.lifetime.end.p0(i64 8, ptr %7) #8
  br label %90

90:                                               ; preds = %89
  %91 = load i64, ptr %5, align 8, !tbaa !75
  %92 = add i64 %91, 1
  store i64 %92, ptr %5, align 8, !tbaa !75
  br label %11, !llvm.loop !113

93:                                               ; preds = %21
  %94 = load ptr, ptr %3, align 8, !tbaa !99
  %95 = getelementptr inbounds nuw %struct.traversal_context, ptr %94, i32 0, i32 0
  %96 = load ptr, ptr %95, align 8, !tbaa !90
  %97 = getelementptr inbounds nuw %struct.rev_info, ptr %96, i32 0, i32 1
  call void @object_array_clear(ptr noundef %97)
  ret void
}