; Function Attrs: nounwind uwtable
define internal fastcc void @traverse_non_commits(ptr noundef nonnull captures(none) %0, ptr noundef nonnull %1) unnamed_addr #0 {
  %3 = load ptr, ptr %0, align 8, !tbaa !74
  %4 = getelementptr inbounds nuw i8, ptr %3, i64 8
  %5 = load i32, ptr %4, align 8, !tbaa !86
  %.not34 = icmp eq i32 %5, 0
  br i1 %.not34, label %._crit_edge, label %.lr.ph

.lr.ph:                                           ; preds = %2
  %6 = getelementptr inbounds nuw i8, ptr %0, i64 40
  %7 = getelementptr inbounds nuw i8, ptr %0, i64 32
  %8 = getelementptr inbounds nuw i8, ptr %0, i64 8
  %9 = getelementptr inbounds nuw i8, ptr %0, i64 24
  br label %11

._crit_edge:                                      ; preds = %process_tag.exit, %2
  %.lcssa32 = phi ptr [ %3, %2 ], [ %60, %process_tag.exit ]
  %10 = getelementptr inbounds nuw i8, ptr %.lcssa32, i64 8
  tail call void @object_array_clear(ptr noundef nonnull %10) #9
  ret void

11:                                               ; preds = %.lr.ph, %process_tag.exit
  %12 = phi ptr [ %3, %.lr.ph ], [ %60, %process_tag.exit ]
  %.033 = phi i64 [ 0, %.lr.ph ], [ %59, %process_tag.exit ]
  %13 = getelementptr inbounds nuw i8, ptr %12, i64 16
  %14 = load ptr, ptr %13, align 8, !tbaa !87
  %15 = getelementptr inbounds nuw %struct.object_array_entry, ptr %14, i64 %.033
  %16 = load ptr, ptr %15, align 8, !tbaa !88
  %17 = getelementptr inbounds nuw i8, ptr %15, i64 8
  %18 = load ptr, ptr %17, align 8, !tbaa !90
  %19 = getelementptr inbounds nuw i8, ptr %15, i64 16
  %20 = load ptr, ptr %19, align 8, !tbaa !91
  %21 = load i32, ptr %16, align 4
  %22 = and i32 %21, 48
  %.not = icmp eq i32 %22, 0
  br i1 %.not, label %23, label %process_tag.exit

23:                                               ; preds = %11
  %24 = lshr i32 %21, 1
  %25 = and i32 %24, 7
  %26 = icmp eq i32 %25, 4
  br i1 %26, label %27, label %53

27:                                               ; preds = %23
  %28 = getelementptr inbounds nuw i8, ptr %12, i64 24
  %29 = load ptr, ptr %28, align 8, !tbaa !17
  %30 = load ptr, ptr %7, align 8, !tbaa !82
  %31 = tail call i32 @list_objects_filter__filter_object(ptr noundef %29, i32 noundef 1, ptr noundef nonnull %16, ptr noundef null, ptr noundef null, ptr noundef %30) #9
  %32 = and i32 %31, 1
  %.not.i = icmp eq i32 %32, 0
  br i1 %.not.i, label %36, label %33

33:                                               ; preds = %27
  %34 = load i32, ptr %16, align 8
  %35 = or i32 %34, 16
  store i32 %35, ptr %16, align 8
  br label %36

36:                                               ; preds = %33, %27
  %37 = and i32 %31, 2
  %.not8.i = icmp eq i32 %37, 0
  br i1 %.not8.i, label %process_tag.exit, label %38

38:                                               ; preds = %36
  %39 = load ptr, ptr %8, align 8, !tbaa !78
  %.not.i.i = icmp eq ptr %39, null
  br i1 %.not.i.i, label %process_tag.exit, label %40

40:                                               ; preds = %38
  %41 = load ptr, ptr %0, align 8, !tbaa !74
  %42 = getelementptr inbounds nuw i8, ptr %41, i64 288
  %43 = load i64, ptr %42, align 8
  %44 = and i64 %43, 1048576
  %.not8.i.i = icmp eq i64 %44, 0
  br i1 %.not8.i.i, label %50, label %45

45:                                               ; preds = %40
  %46 = getelementptr inbounds nuw i8, ptr %41, i64 24
  %47 = load ptr, ptr %46, align 8, !tbaa !17
  %48 = getelementptr inbounds nuw i8, ptr %16, i64 4
  %49 = tail call i32 @has_object_pack(ptr noundef %47, ptr noundef nonnull %48) #9
  %.not9.i.i = icmp eq i32 %49, 0
  br i1 %.not9.i.i, label %._crit_edge.i.i, label %process_tag.exit

._crit_edge.i.i:                                  ; preds = %45
  %.pre.i.i = load ptr, ptr %8, align 8, !tbaa !78
  br label %50

50:                                               ; preds = %._crit_edge.i.i, %40
  %51 = phi ptr [ %.pre.i.i, %._crit_edge.i.i ], [ %39, %40 ]
  %52 = load ptr, ptr %9, align 8, !tbaa !80
  tail call void %51(ptr noundef nonnull %16, ptr noundef %18, ptr noundef %52) #9
  br label %process_tag.exit

53:                                               ; preds = %23
  %.not28 = icmp eq ptr %20, null
  %spec.store.select = select i1 %.not28, ptr @.str.1, ptr %20
  switch i32 %25, label %56 [
    i32 2, label %54
    i32 3, label %55
  ]

54:                                               ; preds = %53
  store i32 0, ptr %6, align 8, !tbaa !92
  tail call fastcc void @process_tree(ptr noundef %0, ptr noundef nonnull %16, ptr noundef %1, ptr noundef nonnull %spec.store.select)
  br label %process_tag.exit

55:                                               ; preds = %53
  tail call fastcc void @process_blob(ptr noundef %0, ptr noundef nonnull %16, ptr noundef %1, ptr noundef nonnull %spec.store.select)
  br label %process_tag.exit

56:                                               ; preds = %53
  %57 = getelementptr inbounds nuw i8, ptr %16, i64 4
  %58 = tail call ptr @oid_to_hex(ptr noundef nonnull %57) #9
  tail call void (ptr, ...) @die(ptr noundef nonnull @.str.2, ptr noundef %58, ptr noundef %18) #10
  unreachable

process_tag.exit:                                 ; preds = %50, %45, %38, %36, %11, %55, %54
  %59 = add nuw nsw i64 %.033, 1
  %60 = load ptr, ptr %0, align 8, !tbaa !74
  %61 = getelementptr inbounds nuw i8, ptr %60, i64 8
  %62 = load i32, ptr %61, align 8, !tbaa !86
  %63 = zext i32 %62 to i64
  %64 = icmp samesign ult i64 %59, %63
  br i1 %64, label %11, label %._crit_edge, !llvm.loop !93
}